; Function Attrs: nounwind uwtable
define dso_local void @pgstat_slru_reset_all_cb(i64 noundef %0) local_unnamed_addr #0 {
  br label %3

2:                                                ; preds = %3
  ret void

3:                                                ; preds = %1, %3
  %indvars.iv = phi i64 [ 0, %1 ], [ %indvars.iv.next, %3 ]
  %4 = load ptr, ptr @pgStatLocal, align 8
  %5 = getelementptr inbounds nuw i8, ptr %4, i64 49856
  %6 = tail call zeroext i1 @LWLockAcquire(ptr noundef nonnull %5, i32 noundef 0) #9
  %7 = getelementptr inbounds nuw i8, ptr %4, i64 49872
  %8 = getelementptr inbounds nuw [8 x %struct.PgStat_SLRUStats], ptr %7, i64 0, i64 %indvars.iv
  tail call void @llvm.memset.p0.i64(ptr noundef nonnull align 8 dereferenceable(64) %8, i8 0, i64 56, i1 false)
  %9 = getelementptr inbounds nuw i8, ptr %8, i64 56
  store i64 %0, ptr %9, align 8
  tail call void @LWLockRelease(ptr noundef nonnull %5) #9
  %indvars.iv.next = add nuw nsw i64 %indvars.iv, 1
  %exitcond.not = icmp eq i64 %indvars.iv.next, 8
  br i1 %exitcond.not, label %2, label %3, !llvm.loop !7
}